; Function Attrs: mustprogress nounwind uwtable
define hidden noundef zeroext i1 @_ZNK18CompiledDirectCall22is_call_to_interpretedEv(ptr nocapture noundef nonnull readonly align 8 dereferenceable(8) %0) local_unnamed_addr #0 align 2 {
  %2 = load ptr, ptr %0, align 8
  %3 = tail call noundef ptr @_ZN9CodeCache12find_nmethodEPv(ptr noundef %2) #14
  %4 = load ptr, ptr %0, align 8
  %5 = tail call noundef ptr @_ZNK10NativeCall11destinationEv(ptr noundef nonnull align 1 dereferenceable(1) %4) #14
  %6 = getelementptr inbounds i8, ptr %3, i64 160
  %7 = load i32, ptr %6, align 8
  %8 = sext i32 %7 to i64
  %9 = getelementptr inbounds i8, ptr %3, i64 %8
  %.not.i = icmp ule ptr %9, %5
  %10 = getelementptr inbounds i8, ptr %3, i64 40
  %11 = load i32, ptr %10, align 8
  %12 = sext i32 %11 to i64
  %13 = getelementptr inbounds i8, ptr %3, i64 %12
  %14 = icmp ugt ptr %13, %5
  %15 = select i1 %.not.i, i1 %14, i1 false
  ret i1 %15
}